ARM GAS  C:\Users\BEATRI~1\AppData\Local\Temp\ccFiP7Tf.s 			page 1


   1              		.syntax unified
   2              		.cpu cortex-m3
   3              		.fpu softvfp
   4              		.eabi_attribute 20, 1
   5              		.eabi_attribute 21, 1
   6              		.eabi_attribute 23, 3
   7              		.eabi_attribute 24, 1
   8              		.eabi_attribute 25, 1
   9              		.eabi_attribute 26, 1
  10              		.eabi_attribute 30, 1
  11              		.eabi_attribute 34, 1
  12              		.eabi_attribute 18, 4
  13              		.thumb
  14              		.syntax unified
  15              		.file	"InterruptRoutines.c"
  16              		.text
  17              	.Ltext0:
  18              		.cfi_sections	.debug_frame
  19              		.global	__aeabi_i2f
  20              		.global	__aeabi_f2d
  21              		.global	__aeabi_dmul
  22              		.global	__aeabi_d2f
  23              		.section	.text.Data_Conversion,"ax",%progbits
  24              		.align	2
  25              		.global	Data_Conversion
  26              		.thumb
  27              		.thumb_func
  28              		.type	Data_Conversion, %function
  29              	Data_Conversion:
  30              	.LFB63:
  31              		.file 1 "InterruptRoutines.c"
   1:InterruptRoutines.c **** /* 
   2:InterruptRoutines.c **** * \file InterruptRoutines.c
   3:InterruptRoutines.c **** */
   4:InterruptRoutines.c **** 
   5:InterruptRoutines.c **** /* Include header files */
   6:InterruptRoutines.c **** #include "InterruptRoutines.h"
   7:InterruptRoutines.c **** #include "registers.h"
   8:InterruptRoutines.c **** 
   9:InterruptRoutines.c **** /* mask for bit 3 of the status register that is set when new data are available on all 3 axis */
  10:InterruptRoutines.c **** #define STATUS_REG_MASK 0x08 
  11:InterruptRoutines.c **** 
  12:InterruptRoutines.c **** /* number of bytes of data read from the slave device: LSB and MSB of X,Y and Z axis acceleration *
  13:InterruptRoutines.c **** #define DATA_BYTES_NUMBER 6
  14:InterruptRoutines.c **** 
  15:InterruptRoutines.c **** /* Sensitivity in the case of 12-bit resolution and ±4g FSR : 2 mg/digit (from the accelerometer d
  16:InterruptRoutines.c **** #define SENSITIVITY 2
  17:InterruptRoutines.c **** 
  18:InterruptRoutines.c **** /* Conversion factor from acceleration in mg to acceleration in m/s^2 */
  19:InterruptRoutines.c **** #define CONVERSION_FACTOR_MG_TO_MS2 0.00981
  20:InterruptRoutines.c **** 
  21:InterruptRoutines.c **** 
  22:InterruptRoutines.c **** /* array to store accelerometer output data (starting from the position zero: LSB and MSB of X,Y an
  23:InterruptRoutines.c **** uint8_t AccelerometerData[DATA_BYTES_NUMBER];
  24:InterruptRoutines.c **** 
  25:InterruptRoutines.c **** /* array to store the 3 accelerations in digit(from the position zero: X axis, Y axis, Z axis) */
  26:InterruptRoutines.c **** int16_t Accelerations_digit[DATA_BYTES_NUMBER/2];
ARM GAS  C:\Users\BEATRI~1\AppData\Local\Temp\ccFiP7Tf.s 			page 2


  27:InterruptRoutines.c **** 
  28:InterruptRoutines.c **** /* array to store the 3 accelerations in mg (from the position zero: X axis, Y axis, Z axis) */
  29:InterruptRoutines.c **** int16_t Accelerations_mg[DATA_BYTES_NUMBER/2];
  30:InterruptRoutines.c **** 
  31:InterruptRoutines.c **** /* array to store the 3 accelerations in m/s^2 (from the position zero: X axis, Y axis, Z axis) */
  32:InterruptRoutines.c **** float Accelerations_ms2[DATA_BYTES_NUMBER/2];
  33:InterruptRoutines.c **** 
  34:InterruptRoutines.c **** /* array to store the 3 accelerations in m/s^2 casted to int(from the position zero: X axis, Y axis
  35:InterruptRoutines.c **** int32_t Accelerations_ms2_int[DATA_BYTES_NUMBER/2];
  36:InterruptRoutines.c **** 
  37:InterruptRoutines.c **** /*Flag to start UART transmission in main*/
  38:InterruptRoutines.c **** volatile uint8_t PacketReadyFlag = 0; 
  39:InterruptRoutines.c **** 
  40:InterruptRoutines.c **** /* Array of bytes to be trasmitted */
  41:InterruptRoutines.c **** uint8_t DataBuffer[TRANSMIT_BUFFER_SIZE]; 
  42:InterruptRoutines.c **** 
  43:InterruptRoutines.c **** /*
  44:InterruptRoutines.c **** * \brief for each axis, starting from left-adjusted LSB and MSB:
  45:InterruptRoutines.c **** * \-create a right-justified 16-bit integer corresponding to the acceleration in digit
  46:InterruptRoutines.c **** * \-convert the acceleration in digit to acceleration in mg
  47:InterruptRoutines.c **** * \-convert the acceleration in mg to acceleration in m/s^2
  48:InterruptRoutines.c **** */
  49:InterruptRoutines.c **** void Data_Conversion(void) {
  32              		.loc 1 49 0
  33              		.cfi_startproc
  34              		@ args = 0, pretend = 0, frame = 0
  35              		@ frame_needed = 0, uses_anonymous_args = 0
  36 0000 10B5     		push	{r4, lr}
  37              		.cfi_def_cfa_offset 8
  38              		.cfi_offset 4, -8
  39              		.cfi_offset 14, -4
  40              	.LVL0:
  50:InterruptRoutines.c ****     
  51:InterruptRoutines.c ****     uint8_t i;
  52:InterruptRoutines.c ****     
  53:InterruptRoutines.c ****     for(i = 0; i < DATA_BYTES_NUMBER/2; i++) {
  41              		.loc 1 53 0
  42 0002 0024     		movs	r4, #0
  43 0004 20E0     		b	.L2
  44              	.LVL1:
  45              	.L3:
  54:InterruptRoutines.c ****         
  55:InterruptRoutines.c ****         /* right shift of 4 to get right-justified 12 bits */
  56:InterruptRoutines.c ****         Accelerations_digit[i] = (int16)((AccelerometerData[i*2] | (AccelerometerData[i*2+1] << 8))
  46              		.loc 1 56 0 discriminator 3
  47 0006 6200     		lsls	r2, r4, #1
  48 0008 1349     		ldr	r1, .L5+8
  49 000a 11F81430 		ldrb	r3, [r1, r4, lsl #1]	@ zero_extendqisi2
  50 000e 0132     		adds	r2, r2, #1
  51 0010 885C     		ldrb	r0, [r1, r2]	@ zero_extendqisi2
  52 0012 43EA0020 		orr	r0, r3, r0, lsl #8
  53 0016 40F30B10 		sbfx	r0, r0, #4, #12
  54 001a 104B     		ldr	r3, .L5+12
  55 001c 23F81400 		strh	r0, [r3, r4, lsl #1]	@ movhi
  57:InterruptRoutines.c ****         /* multiply by the sensitivity to get the value in mg */
  58:InterruptRoutines.c ****         Accelerations_mg[i] = Accelerations_digit[i] * SENSITIVITY;
  56              		.loc 1 58 0 discriminator 3
ARM GAS  C:\Users\BEATRI~1\AppData\Local\Temp\ccFiP7Tf.s 			page 3


  57 0020 4000     		lsls	r0, r0, #1
  58 0022 0F4B     		ldr	r3, .L5+16
  59 0024 23F81400 		strh	r0, [r3, r4, lsl #1]	@ movhi
  59:InterruptRoutines.c ****         /* convert the value in mg in m/s^2 */
  60:InterruptRoutines.c ****         Accelerations_ms2[i] = ((float) Accelerations_mg[i]) * CONVERSION_FACTOR_MG_TO_MS2;
  60              		.loc 1 60 0 discriminator 3
  61 0028 FFF7FEFF 		bl	__aeabi_i2f
  62              	.LVL2:
  63 002c FFF7FEFF 		bl	__aeabi_f2d
  64              	.LVL3:
  65 0030 07A3     		adr	r3, .L5
  66 0032 D3E90023 		ldrd	r2, [r3]
  67 0036 FFF7FEFF 		bl	__aeabi_dmul
  68              	.LVL4:
  69 003a FFF7FEFF 		bl	__aeabi_d2f
  70              	.LVL5:
  71 003e 094B     		ldr	r3, .L5+20
  72 0040 43F82400 		str	r0, [r3, r4, lsl #2]	@ float
  53:InterruptRoutines.c ****         
  73              		.loc 1 53 0 discriminator 3
  74 0044 0134     		adds	r4, r4, #1
  75              	.LVL6:
  76 0046 E4B2     		uxtb	r4, r4
  77              	.LVL7:
  78              	.L2:
  53:InterruptRoutines.c ****         
  79              		.loc 1 53 0 is_stmt 0 discriminator 1
  80 0048 022C     		cmp	r4, #2
  81 004a DCD9     		bls	.L3
  61:InterruptRoutines.c ****     }
  62:InterruptRoutines.c **** 
  63:InterruptRoutines.c **** }
  82              		.loc 1 63 0 is_stmt 1
  83 004c 10BD     		pop	{r4, pc}
  84              	.LVL8:
  85              	.L6:
  86 004e 00BF     		.align	3
  87              	.L5:
  88 0050 48DC63E9 		.word	-379331512
  89 0054 4317843F 		.word	1065621315
  90 0058 00000000 		.word	AccelerometerData
  91 005c 00000000 		.word	Accelerations_digit
  92 0060 00000000 		.word	Accelerations_mg
  93 0064 00000000 		.word	Accelerations_ms2
  94              		.cfi_endproc
  95              	.LFE63:
  96              		.size	Data_Conversion, .-Data_Conversion
  97              		.global	__aeabi_d2iz
  98              		.section	.text.Packet_Preparation,"ax",%progbits
  99              		.align	2
 100              		.global	Packet_Preparation
 101              		.thumb
 102              		.thumb_func
 103              		.type	Packet_Preparation, %function
 104              	Packet_Preparation:
 105              	.LFB64:
  64:InterruptRoutines.c **** 
ARM GAS  C:\Users\BEATRI~1\AppData\Local\Temp\ccFiP7Tf.s 			page 4


  65:InterruptRoutines.c **** /* 
  66:InterruptRoutines.c **** * \brief for each axis, starting from the acceleration in m/s^2:
  67:InterruptRoutines.c **** * \-cast to int32 after multiplying by 1000 to keep the first 3 decimals
  68:InterruptRoutines.c **** * \-put the 4 bytes of the int32 in the correct position of the packet to be sent 
  69:InterruptRoutines.c **** */
  70:InterruptRoutines.c **** void Packet_Preparation(void) {
 106              		.loc 1 70 0
 107              		.cfi_startproc
 108              		@ args = 0, pretend = 0, frame = 0
 109              		@ frame_needed = 0, uses_anonymous_args = 0
 110 0000 38B5     		push	{r3, r4, r5, lr}
 111              		.cfi_def_cfa_offset 16
 112              		.cfi_offset 3, -16
 113              		.cfi_offset 4, -12
 114              		.cfi_offset 5, -8
 115              		.cfi_offset 14, -4
 116              	.LVL9:
  71:InterruptRoutines.c ****     
  72:InterruptRoutines.c ****     uint8_t i;
  73:InterruptRoutines.c ****     
  74:InterruptRoutines.c ****     for(i = 0; i<DATA_BYTES_NUMBER/2; i++) {
 117              		.loc 1 74 0
 118 0002 0024     		movs	r4, #0
 119 0004 1CE0     		b	.L8
 120              	.LVL10:
 121              	.L9:
  75:InterruptRoutines.c ****         
  76:InterruptRoutines.c ****         Accelerations_ms2_int[i] = (Accelerations_ms2[i] * 1000.0);
 122              		.loc 1 76 0 discriminator 3
 123 0006 104B     		ldr	r3, .L11
 124 0008 53F82400 		ldr	r0, [r3, r4, lsl #2]	@ float
 125 000c FFF7FEFF 		bl	__aeabi_f2d
 126              	.LVL11:
 127 0010 0022     		movs	r2, #0
 128 0012 0E4B     		ldr	r3, .L11+4
 129 0014 FFF7FEFF 		bl	__aeabi_dmul
 130              	.LVL12:
 131 0018 FFF7FEFF 		bl	__aeabi_d2iz
 132              	.LVL13:
 133 001c 0C4B     		ldr	r3, .L11+8
 134 001e 43F82400 		str	r0, [r3, r4, lsl #2]
  77:InterruptRoutines.c ****         DataBuffer[i*4+1] = Accelerations_ms2_int[i] & 0xFF; /*LSB */
 135              		.loc 1 77 0 discriminator 3
 136 0022 A300     		lsls	r3, r4, #2
 137 0024 591C     		adds	r1, r3, #1
 138 0026 0B4A     		ldr	r2, .L11+12
 139 0028 5054     		strb	r0, [r2, r1]
  78:InterruptRoutines.c ****         DataBuffer[i*4+2] = (Accelerations_ms2_int[i] >> 8) & 0xFF; /* Second byte */
 140              		.loc 1 78 0 discriminator 3
 141 002a 991C     		adds	r1, r3, #2
 142 002c 0512     		asrs	r5, r0, #8
 143 002e 5554     		strb	r5, [r2, r1]
  79:InterruptRoutines.c ****         DataBuffer[i*4+3] = (Accelerations_ms2_int[i] >> 16) & 0xFF; /* Third byte */
 144              		.loc 1 79 0 discriminator 3
 145 0030 0333     		adds	r3, r3, #3
 146 0032 0114     		asrs	r1, r0, #16
 147 0034 D154     		strb	r1, [r2, r3]
ARM GAS  C:\Users\BEATRI~1\AppData\Local\Temp\ccFiP7Tf.s 			page 5


  80:InterruptRoutines.c ****         DataBuffer[i*4+4] = (Accelerations_ms2_int[i] >> 24); /* MSB */        
 148              		.loc 1 80 0 discriminator 3
 149 0036 0134     		adds	r4, r4, #1
 150              	.LVL14:
 151 0038 0016     		asrs	r0, r0, #24
 152 003a 02F82400 		strb	r0, [r2, r4, lsl #2]
  74:InterruptRoutines.c ****         
 153              		.loc 1 74 0 discriminator 3
 154 003e E4B2     		uxtb	r4, r4
 155              	.LVL15:
 156              	.L8:
  74:InterruptRoutines.c ****         
 157              		.loc 1 74 0 is_stmt 0 discriminator 1
 158 0040 022C     		cmp	r4, #2
 159 0042 E0D9     		bls	.L9
  81:InterruptRoutines.c ****     }
  82:InterruptRoutines.c ****     
  83:InterruptRoutines.c **** }
 160              		.loc 1 83 0 is_stmt 1
 161 0044 38BD     		pop	{r3, r4, r5, pc}
 162              	.LVL16:
 163              	.L12:
 164 0046 00BF     		.align	2
 165              	.L11:
 166 0048 00000000 		.word	Accelerations_ms2
 167 004c 00408F40 		.word	1083129856
 168 0050 00000000 		.word	Accelerations_ms2_int
 169 0054 00000000 		.word	DataBuffer
 170              		.cfi_endproc
 171              	.LFE64:
 172              		.size	Packet_Preparation, .-Packet_Preparation
 173              		.section	.text.Custom_TIMER_ISR,"ax",%progbits
 174              		.align	2
 175              		.global	Custom_TIMER_ISR
 176              		.thumb
 177              		.thumb_func
 178              		.type	Custom_TIMER_ISR, %function
 179              	Custom_TIMER_ISR:
 180              	.LFB65:
  84:InterruptRoutines.c **** 
  85:InterruptRoutines.c **** /*
  86:InterruptRoutines.c **** * \brief ISR on TC (every 10 ms):
  87:InterruptRoutines.c **** * \read the status register
  88:InterruptRoutines.c **** * \if bit 3 is set, read output data of all axis
  89:InterruptRoutines.c **** * \convert the data
  90:InterruptRoutines.c **** * \prepare the packet
  91:InterruptRoutines.c **** * \rise the flag to send the packet 
  92:InterruptRoutines.c **** */
  93:InterruptRoutines.c **** CY_ISR(Custom_TIMER_ISR) {
 181              		.loc 1 93 0
 182              		.cfi_startproc
 183              		@ args = 0, pretend = 0, frame = 8
 184              		@ frame_needed = 0, uses_anonymous_args = 0
 185 0000 00B5     		push	{lr}
 186              		.cfi_def_cfa_offset 4
 187              		.cfi_offset 14, -4
 188 0002 83B0     		sub	sp, sp, #12
ARM GAS  C:\Users\BEATRI~1\AppData\Local\Temp\ccFiP7Tf.s 			page 6


 189              		.cfi_def_cfa_offset 16
  94:InterruptRoutines.c ****     
  95:InterruptRoutines.c ****     Timer_ReadStatusRegister();
 190              		.loc 1 95 0
 191 0004 FFF7FEFF 		bl	Timer_ReadStatusRegister
 192              	.LVL17:
  96:InterruptRoutines.c ****     
  97:InterruptRoutines.c ****     uint8_t status_reg;
  98:InterruptRoutines.c ****     ErrorCode error = I2C_Peripheral_ReadRegister(LIS3DH_DEVICE_ADDRESS,
 193              		.loc 1 98 0
 194 0008 0DF10702 		add	r2, sp, #7
 195 000c 2721     		movs	r1, #39
 196 000e 1820     		movs	r0, #24
 197 0010 FFF7FEFF 		bl	I2C_Peripheral_ReadRegister
 198              	.LVL18:
  99:InterruptRoutines.c ****                                                   STATUS_REG_ADDR,
 100:InterruptRoutines.c ****                                                   &status_reg);
 101:InterruptRoutines.c ****     if (error == NO_ERROR) {
 199              		.loc 1 101 0
 200 0014 90B9     		cbnz	r0, .L13
 102:InterruptRoutines.c ****         if (status_reg & STATUS_REG_MASK) {
 201              		.loc 1 102 0
 202 0016 9DF80730 		ldrb	r3, [sp, #7]	@ zero_extendqisi2
 203 001a 13F0080F 		tst	r3, #8
 204 001e 0DD0     		beq	.L13
 103:InterruptRoutines.c ****         
 104:InterruptRoutines.c ****             error = I2C_Peripheral_ReadRegisterMulti( LIS3DH_DEVICE_ADDRESS,
 205              		.loc 1 104 0
 206 0020 084B     		ldr	r3, .L16
 207 0022 0622     		movs	r2, #6
 208 0024 2821     		movs	r1, #40
 209 0026 1820     		movs	r0, #24
 210              	.LVL19:
 211 0028 FFF7FEFF 		bl	I2C_Peripheral_ReadRegisterMulti
 212              	.LVL20:
 105:InterruptRoutines.c ****                                                       OUT_X_L_ADDR,
 106:InterruptRoutines.c ****                                                       6,
 107:InterruptRoutines.c ****                                                       AccelerometerData);
 108:InterruptRoutines.c ****             if (error == NO_ERROR) {
 213              		.loc 1 108 0
 214 002c 30B9     		cbnz	r0, .L13
 109:InterruptRoutines.c ****                 Data_Conversion();
 215              		.loc 1 109 0
 216 002e FFF7FEFF 		bl	Data_Conversion
 217              	.LVL21:
 110:InterruptRoutines.c ****                 Packet_Preparation();
 218              		.loc 1 110 0
 219 0032 FFF7FEFF 		bl	Packet_Preparation
 220              	.LVL22:
 111:InterruptRoutines.c ****                 PacketReadyFlag = 1;
 221              		.loc 1 111 0
 222 0036 0122     		movs	r2, #1
 223 0038 034B     		ldr	r3, .L16+4
 224 003a 1A70     		strb	r2, [r3]
 225              	.L13:
 112:InterruptRoutines.c ****             }
 113:InterruptRoutines.c ****         }
ARM GAS  C:\Users\BEATRI~1\AppData\Local\Temp\ccFiP7Tf.s 			page 7


 114:InterruptRoutines.c ****     }   
 115:InterruptRoutines.c **** }
 226              		.loc 1 115 0
 227 003c 03B0     		add	sp, sp, #12
 228              		.cfi_def_cfa_offset 4
 229              		@ sp needed
 230 003e 5DF804FB 		ldr	pc, [sp], #4
 231              	.L17:
 232 0042 00BF     		.align	2
 233              	.L16:
 234 0044 00000000 		.word	AccelerometerData
 235 0048 00000000 		.word	.LANCHOR0
 236              		.cfi_endproc
 237              	.LFE65:
 238              		.size	Custom_TIMER_ISR, .-Custom_TIMER_ISR
 239              		.comm	DataBuffer,14,4
 240              		.global	PacketReadyFlag
 241              		.comm	Accelerations_ms2_int,12,4
 242              		.comm	Accelerations_ms2,12,4
 243              		.comm	Accelerations_mg,6,4
 244              		.comm	Accelerations_digit,6,4
 245              		.comm	AccelerometerData,6,4
 246              		.bss
 247              		.set	.LANCHOR0,. + 0
 248              		.type	PacketReadyFlag, %object
 249              		.size	PacketReadyFlag, 1
 250              	PacketReadyFlag:
 251 0000 00       		.space	1
 252              		.text
 253              	.Letext0:
 254              		.file 2 "c:\\program files (x86)\\cypress\\psoc creator\\4.3\\psoc creator\\import\\gnu\\arm\\5.4.
 255              		.file 3 "c:\\program files (x86)\\cypress\\psoc creator\\4.3\\psoc creator\\import\\gnu\\arm\\5.4.
 256              		.file 4 "Generated_Source\\PSoC5/cytypes.h"
 257              		.file 5 "ErrorCodes.h"
 258              		.file 6 "Generated_Source\\PSoC5/core_cm3.h"
 259              		.file 7 "Generated_Source\\PSoC5/Timer.h"
 260              		.file 8 "I2C_Interface.h"