ARM GAS  C:\Users\BEATRI~1\AppData\Local\Temp\ccRBPJLg.s 			page 1


   1              		.syntax unified
   2              		.cpu cortex-m3
   3              		.fpu softvfp
   4              		.eabi_attribute 20, 1
   5              		.eabi_attribute 21, 1
   6              		.eabi_attribute 23, 3
   7              		.eabi_attribute 24, 1
   8              		.eabi_attribute 25, 1
   9              		.eabi_attribute 26, 1
  10              		.eabi_attribute 30, 1
  11              		.eabi_attribute 34, 1
  12              		.eabi_attribute 18, 4
  13              		.thumb
  14              		.syntax unified
  15              		.file	"InterruptRoutines.c"
  16              		.text
  17              	.Ltext0:
  18              		.cfi_sections	.debug_frame
  19              		.section	.text.Data_Conversion,"ax",%progbits
  20              		.align	2
  21              		.global	Data_Conversion
  22              		.thumb
  23              		.thumb_func
  24              		.type	Data_Conversion, %function
  25              	Data_Conversion:
  26              	.LFB63:
  27              		.file 1 "InterruptRoutines.c"
   1:InterruptRoutines.c **** /* 
   2:InterruptRoutines.c **** * \file InterruptRoutines.c
   3:InterruptRoutines.c **** */
   4:InterruptRoutines.c **** 
   5:InterruptRoutines.c **** /* Include header files */
   6:InterruptRoutines.c **** #include "InterruptRoutines.h"
   7:InterruptRoutines.c **** #include "registers.h"
   8:InterruptRoutines.c **** 
   9:InterruptRoutines.c **** /* mask for bit 3 of the status register that is set when new data are available on all 3 axis */
  10:InterruptRoutines.c **** #define STATUS_REG_MASK 0x08 
  11:InterruptRoutines.c **** 
  12:InterruptRoutines.c **** /* number of bytes of data read from the slave device: LSB and MSB of X,Y and Z axis acceleration *
  13:InterruptRoutines.c **** #define DATA_BYTES_NUMBER 6
  14:InterruptRoutines.c **** 
  15:InterruptRoutines.c **** 
  16:InterruptRoutines.c **** /* array to store accelerometer output data (starting from the position zero: LSB and MSB of X,Y an
  17:InterruptRoutines.c **** uint8_t AccelerometerData[DATA_BYTES_NUMBER];
  18:InterruptRoutines.c **** 
  19:InterruptRoutines.c **** /* array to store the 3 accelerations in mg (from the position zero: X axis, Y axis, Z axis */
  20:InterruptRoutines.c **** int16_t Accelerations_mg[DATA_BYTES_NUMBER/2];
  21:InterruptRoutines.c **** 
  22:InterruptRoutines.c **** /*Flag to start UART transmission in main*/
  23:InterruptRoutines.c **** volatile uint8_t PacketReadyFlag = 0; 
  24:InterruptRoutines.c **** 
  25:InterruptRoutines.c **** /* Array of bytes to be trasmitted */
  26:InterruptRoutines.c **** uint8_t DataBuffer[TRANSMIT_BUFFER_SIZE]; 
  27:InterruptRoutines.c **** 
  28:InterruptRoutines.c **** /*
  29:InterruptRoutines.c **** * \brief for each axis, starting from left-adjusted LSB and MSB, create a right-justified 16-bit in
  30:InterruptRoutines.c **** */
ARM GAS  C:\Users\BEATRI~1\AppData\Local\Temp\ccRBPJLg.s 			page 2


  31:InterruptRoutines.c **** void Data_Conversion(void) {
  28              		.loc 1 31 0
  29              		.cfi_startproc
  30              		@ args = 0, pretend = 0, frame = 0
  31              		@ frame_needed = 0, uses_anonymous_args = 0
  32              		@ link register save eliminated.
  33              	.LVL0:
  32:InterruptRoutines.c ****     
  33:InterruptRoutines.c ****     uint8_t i;
  34:InterruptRoutines.c ****     
  35:InterruptRoutines.c ****     for(i = 0; i < DATA_BYTES_NUMBER/2; i++) {
  34              		.loc 1 35 0
  35 0000 0023     		movs	r3, #0
  36 0002 0EE0     		b	.L2
  37              	.LVL1:
  38              	.L3:
  36:InterruptRoutines.c ****         
  37:InterruptRoutines.c ****         /* right shift of 4 = right shift of 6 to get right-justified 10 bits + left shift of 2 to 
  38:InterruptRoutines.c ****         Accelerations_mg[i] = (int16)((AccelerometerData[i*2] | (AccelerometerData[i*2+1] << 8))) >
  39              		.loc 1 38 0 discriminator 3
  40 0004 5900     		lsls	r1, r3, #1
  41 0006 0848     		ldr	r0, .L4
  42 0008 10F81320 		ldrb	r2, [r0, r3, lsl #1]	@ zero_extendqisi2
  43 000c 0131     		adds	r1, r1, #1
  44 000e 415C     		ldrb	r1, [r0, r1]	@ zero_extendqisi2
  45 0010 42EA0122 		orr	r2, r2, r1, lsl #8
  46 0014 42F30B12 		sbfx	r2, r2, #4, #12
  47 0018 0449     		ldr	r1, .L4+4
  48 001a 21F81320 		strh	r2, [r1, r3, lsl #1]	@ movhi
  35:InterruptRoutines.c ****         
  49              		.loc 1 35 0 discriminator 3
  50 001e 0133     		adds	r3, r3, #1
  51              	.LVL2:
  52 0020 DBB2     		uxtb	r3, r3
  53              	.LVL3:
  54              	.L2:
  35:InterruptRoutines.c ****         
  55              		.loc 1 35 0 is_stmt 0 discriminator 1
  56 0022 022B     		cmp	r3, #2
  57 0024 EED9     		bls	.L3
  39:InterruptRoutines.c ****         
  40:InterruptRoutines.c ****     }
  41:InterruptRoutines.c **** 
  42:InterruptRoutines.c **** }
  58              		.loc 1 42 0 is_stmt 1
  59 0026 7047     		bx	lr
  60              	.L5:
  61              		.align	2
  62              	.L4:
  63 0028 00000000 		.word	AccelerometerData
  64 002c 00000000 		.word	Accelerations_mg
  65              		.cfi_endproc
  66              	.LFE63:
  67              		.size	Data_Conversion, .-Data_Conversion
  68              		.section	.text.Packet_Preparation,"ax",%progbits
  69              		.align	2
  70              		.global	Packet_Preparation
ARM GAS  C:\Users\BEATRI~1\AppData\Local\Temp\ccRBPJLg.s 			page 3


  71              		.thumb
  72              		.thumb_func
  73              		.type	Packet_Preparation, %function
  74              	Packet_Preparation:
  75              	.LFB64:
  43:InterruptRoutines.c **** 
  44:InterruptRoutines.c **** /* 
  45:InterruptRoutines.c **** * \brief for each axis, put LSB and MSB of the acceleration value in mg in the correct position of 
  46:InterruptRoutines.c **** */
  47:InterruptRoutines.c **** void Packet_Preparation(void) {
  76              		.loc 1 47 0
  77              		.cfi_startproc
  78              		@ args = 0, pretend = 0, frame = 0
  79              		@ frame_needed = 0, uses_anonymous_args = 0
  80              		@ link register save eliminated.
  81              	.LVL4:
  48:InterruptRoutines.c ****     
  49:InterruptRoutines.c ****     uint8_t i;
  50:InterruptRoutines.c ****     
  51:InterruptRoutines.c ****     for(i = 0; i<DATA_BYTES_NUMBER/2; i++) {
  82              		.loc 1 51 0
  83 0000 0023     		movs	r3, #0
  84 0002 0BE0     		b	.L7
  85              	.LVL5:
  86              	.L8:
  52:InterruptRoutines.c ****         
  53:InterruptRoutines.c ****         DataBuffer[i*2+1] = Accelerations_mg[i] & 0xFF;
  87              		.loc 1 53 0 discriminator 3
  88 0004 5900     		lsls	r1, r3, #1
  89 0006 0131     		adds	r1, r1, #1
  90 0008 064A     		ldr	r2, .L9
  91 000a 32F91320 		ldrsh	r2, [r2, r3, lsl #1]
  92 000e 0648     		ldr	r0, .L9+4
  93 0010 4254     		strb	r2, [r0, r1]
  54:InterruptRoutines.c ****         DataBuffer[i*2+2] = Accelerations_mg[i] >> 8;
  94              		.loc 1 54 0 discriminator 3
  95 0012 0133     		adds	r3, r3, #1
  96              	.LVL6:
  97 0014 1212     		asrs	r2, r2, #8
  98 0016 00F81320 		strb	r2, [r0, r3, lsl #1]
  51:InterruptRoutines.c ****         
  99              		.loc 1 51 0 discriminator 3
 100 001a DBB2     		uxtb	r3, r3
 101              	.LVL7:
 102              	.L7:
  51:InterruptRoutines.c ****         
 103              		.loc 1 51 0 is_stmt 0 discriminator 1
 104 001c 022B     		cmp	r3, #2
 105 001e F1D9     		bls	.L8
  55:InterruptRoutines.c ****         
  56:InterruptRoutines.c ****     }
  57:InterruptRoutines.c ****         
  58:InterruptRoutines.c **** }
 106              		.loc 1 58 0 is_stmt 1
 107 0020 7047     		bx	lr
 108              	.L10:
 109 0022 00BF     		.align	2
ARM GAS  C:\Users\BEATRI~1\AppData\Local\Temp\ccRBPJLg.s 			page 4


 110              	.L9:
 111 0024 00000000 		.word	Accelerations_mg
 112 0028 00000000 		.word	DataBuffer
 113              		.cfi_endproc
 114              	.LFE64:
 115              		.size	Packet_Preparation, .-Packet_Preparation
 116              		.section	.text.Custom_TIMER_ISR,"ax",%progbits
 117              		.align	2
 118              		.global	Custom_TIMER_ISR
 119              		.thumb
 120              		.thumb_func
 121              		.type	Custom_TIMER_ISR, %function
 122              	Custom_TIMER_ISR:
 123              	.LFB65:
  59:InterruptRoutines.c **** 
  60:InterruptRoutines.c **** /*
  61:InterruptRoutines.c **** * \brief ISR on TC (every 10 ms):
  62:InterruptRoutines.c **** * \read the status register
  63:InterruptRoutines.c **** * \if bit 3 is set, read output data of all axis
  64:InterruptRoutines.c **** * \convert the data
  65:InterruptRoutines.c **** * \prepare the packet
  66:InterruptRoutines.c **** * \rise the flag to send the packet 
  67:InterruptRoutines.c **** */
  68:InterruptRoutines.c **** CY_ISR(Custom_TIMER_ISR) {
 124              		.loc 1 68 0
 125              		.cfi_startproc
 126              		@ args = 0, pretend = 0, frame = 8
 127              		@ frame_needed = 0, uses_anonymous_args = 0
 128 0000 00B5     		push	{lr}
 129              		.cfi_def_cfa_offset 4
 130              		.cfi_offset 14, -4
 131 0002 83B0     		sub	sp, sp, #12
 132              		.cfi_def_cfa_offset 16
  69:InterruptRoutines.c ****     
  70:InterruptRoutines.c ****     Timer_ReadStatusRegister();
 133              		.loc 1 70 0
 134 0004 FFF7FEFF 		bl	Timer_ReadStatusRegister
 135              	.LVL8:
  71:InterruptRoutines.c ****     uint8_t status_reg;
  72:InterruptRoutines.c ****     ErrorCode error = I2C_Peripheral_ReadRegister(LIS3DH_DEVICE_ADDRESS,
 136              		.loc 1 72 0
 137 0008 0DF10702 		add	r2, sp, #7
 138 000c 2721     		movs	r1, #39
 139 000e 1820     		movs	r0, #24
 140 0010 FFF7FEFF 		bl	I2C_Peripheral_ReadRegister
 141              	.LVL9:
  73:InterruptRoutines.c ****                                                   STATUS_REG_ADDR,
  74:InterruptRoutines.c ****                                                   &status_reg);
  75:InterruptRoutines.c ****     if (error == NO_ERROR) {
 142              		.loc 1 75 0
 143 0014 90B9     		cbnz	r0, .L11
  76:InterruptRoutines.c ****         if (status_reg & STATUS_REG_MASK) {
 144              		.loc 1 76 0
 145 0016 9DF80730 		ldrb	r3, [sp, #7]	@ zero_extendqisi2
 146 001a 13F0080F 		tst	r3, #8
 147 001e 0DD0     		beq	.L11
  77:InterruptRoutines.c ****         
ARM GAS  C:\Users\BEATRI~1\AppData\Local\Temp\ccRBPJLg.s 			page 5


  78:InterruptRoutines.c ****             error = I2C_Peripheral_ReadRegisterMulti( LIS3DH_DEVICE_ADDRESS,
 148              		.loc 1 78 0
 149 0020 084B     		ldr	r3, .L14
 150 0022 0622     		movs	r2, #6
 151 0024 2821     		movs	r1, #40
 152 0026 1820     		movs	r0, #24
 153              	.LVL10:
 154 0028 FFF7FEFF 		bl	I2C_Peripheral_ReadRegisterMulti
 155              	.LVL11:
  79:InterruptRoutines.c ****                                                       OUT_X_L_ADDR,
  80:InterruptRoutines.c ****                                                       6,
  81:InterruptRoutines.c ****                                                       AccelerometerData);
  82:InterruptRoutines.c ****             if (error == NO_ERROR) {
 156              		.loc 1 82 0
 157 002c 30B9     		cbnz	r0, .L11
  83:InterruptRoutines.c ****                 Data_Conversion();
 158              		.loc 1 83 0
 159 002e FFF7FEFF 		bl	Data_Conversion
 160              	.LVL12:
  84:InterruptRoutines.c ****                 Packet_Preparation();
 161              		.loc 1 84 0
 162 0032 FFF7FEFF 		bl	Packet_Preparation
 163              	.LVL13:
  85:InterruptRoutines.c ****                 PacketReadyFlag = 1;
 164              		.loc 1 85 0
 165 0036 0122     		movs	r2, #1
 166 0038 034B     		ldr	r3, .L14+4
 167 003a 1A70     		strb	r2, [r3]
 168              	.L11:
  86:InterruptRoutines.c ****             }
  87:InterruptRoutines.c ****         }
  88:InterruptRoutines.c ****     }  
  89:InterruptRoutines.c **** }
 169              		.loc 1 89 0
 170 003c 03B0     		add	sp, sp, #12
 171              		.cfi_def_cfa_offset 4
 172              		@ sp needed
 173 003e 5DF804FB 		ldr	pc, [sp], #4
 174              	.L15:
 175 0042 00BF     		.align	2
 176              	.L14:
 177 0044 00000000 		.word	AccelerometerData
 178 0048 00000000 		.word	.LANCHOR0
 179              		.cfi_endproc
 180              	.LFE65:
 181              		.size	Custom_TIMER_ISR, .-Custom_TIMER_ISR
 182              		.comm	DataBuffer,8,4
 183              		.global	PacketReadyFlag
 184              		.comm	Accelerations_mg,6,4
 185              		.comm	AccelerometerData,6,4
 186              		.bss
 187              		.set	.LANCHOR0,. + 0
 188              		.type	PacketReadyFlag, %object
 189              		.size	PacketReadyFlag, 1
 190              	PacketReadyFlag:
 191 0000 00       		.space	1
 192              		.text
ARM GAS  C:\Users\BEATRI~1\AppData\Local\Temp\ccRBPJLg.s 			page 6


 193              	.Letext0:
 194              		.file 2 "c:\\program files (x86)\\cypress\\psoc creator\\4.3\\psoc creator\\import\\gnu\\arm\\5.4.
 195              		.file 3 "c:\\program files (x86)\\cypress\\psoc creator\\4.3\\psoc creator\\import\\gnu\\arm\\5.4.
 196              		.file 4 "Generated_Source\\PSoC5/cytypes.h"
 197              		.file 5 "ErrorCodes.h"
 198              		.file 6 "Generated_Source\\PSoC5/core_cm3.h"
 199              		.file 7 "Generated_Source\\PSoC5/Timer.h"
 200              		.file 8 "I2C_Interface.h"